; Function Attrs: nounwind uwtable
define internal ptr @sys_addaudithook(ptr readnone captures(none) %0, ptr noundef %1, i64 noundef %2, ptr noundef %3) #0 {
  %5 = alloca [1 x ptr], align 8
  call void @llvm.lifetime.start.p0(i64 8, ptr nonnull %5) #15
  %6 = icmp eq ptr %3, null
  %7 = icmp eq i64 %2, 1
  %or.cond3 = and i1 %7, %6
  %8 = icmp ne ptr %1, null
  %or.cond5 = and i1 %8, %or.cond3
  br i1 %or.cond5, label %.thread, label %9

9:                                                ; preds = %4
  %10 = call ptr @_PyArg_UnpackKeywords(ptr noundef %1, i64 noundef %2, ptr noundef null, ptr noundef %3, ptr noundef nonnull @sys_addaudithook._parser, i32 noundef 1, i32 noundef 1, i32 noundef 0, i32 noundef 0, ptr noundef nonnull %5) #15
  %.not = icmp eq ptr %10, null
  br i1 %.not, label %sys_addaudithook_impl.exit, label %.thread

.thread:                                          ; preds = %4, %9
  %11 = phi ptr [ %10, %9 ], [ %1, %4 ]
  %12 = load ptr, ptr %11, align 8, !tbaa !93
  %13 = call align 8 ptr @llvm.threadlocal.address.p0(ptr align 8 @_Py_tss_tstate)
  %14 = load ptr, ptr %13, align 8, !tbaa !92
  %15 = call i32 (ptr, ptr, ptr, ...) @_PySys_Audit(ptr noundef %14, ptr noundef nonnull @.str.6, ptr noundef null)
  %16 = icmp slt i32 %15, 0
  br i1 %16, label %17, label %21

17:                                               ; preds = %.thread
  %18 = load ptr, ptr @PyExc_Exception, align 8, !tbaa !93
  %19 = call i32 @_PyErr_ExceptionMatches(ptr noundef %14, ptr noundef %18) #15
  %.not.i = icmp eq i32 %19, 0
  br i1 %.not.i, label %sys_addaudithook_impl.exit, label %20

20:                                               ; preds = %17
  call void @_PyErr_Clear(ptr noundef %14) #15
  br label %sys_addaudithook_impl.exit

21:                                               ; preds = %.thread
  %22 = getelementptr inbounds nuw i8, ptr %14, i64 16
  %23 = load ptr, ptr %22, align 8, !tbaa !4
  %24 = getelementptr inbounds nuw i8, ptr %23, i64 10824
  %25 = load ptr, ptr %24, align 8, !tbaa !184
  %26 = icmp eq ptr %25, null
  br i1 %26, label %27, label %31

27:                                               ; preds = %21
  %28 = call ptr @PyList_New(i64 noundef 0) #15
  store ptr %28, ptr %24, align 8, !tbaa !184
  %29 = icmp eq ptr %28, null
  br i1 %29, label %sys_addaudithook_impl.exit, label %30

30:                                               ; preds = %27
  call void @PyObject_GC_UnTrack(ptr noundef nonnull %28) #15
  %.pre.i = load ptr, ptr %24, align 8, !tbaa !184
  br label %31

31:                                               ; preds = %30, %21
  %32 = phi ptr [ %.pre.i, %30 ], [ %25, %21 ]
  %33 = call i32 @PyList_Append(ptr noundef %32, ptr noundef %12) #15
  %34 = icmp slt i32 %33, 0
  %._Py_NoneStruct.i = select i1 %34, ptr null, ptr @_Py_NoneStruct
  br label %sys_addaudithook_impl.exit

sys_addaudithook_impl.exit:                       ; preds = %31, %27, %20, %17, %9
  %.0 = phi ptr [ null, %9 ], [ @_Py_NoneStruct, %20 ], [ null, %17 ], [ null, %27 ], [ %._Py_NoneStruct.i, %31 ]
  call void @llvm.lifetime.end.p0(i64 8, ptr nonnull %5) #15
  ret ptr %.0
}